Certificate:
    Data:
        Version: 3 (0x2)
        Serial Number: 1 (0x1)
    Signature Algorithm: sha512WithRSAEncryption
        Issuer: O=DAOS, CN=DAOS CA
        Validity
            Not Before: Oct  1 11:29:43 2022 GMT
            Not After : Sep 30 11:29:43 2025 GMT
        Subject: O=DAOS, CN=server
        Subject Public Key Info:
            Public Key Algorithm: rsaEncryption
                Public-Key: (3072 bit)
                Modulus:
                    00:bd:79:95:e1:69:52:fd:d3:c6:ab:a5:94:8a:07:
                    a9:90:de:d3:c7:39:94:3e:dc:5b:ba:b6:ec:a2:26:
                    ac:4c:10:db:ae:2a:b8:94:77:ac:77:73:2a:1c:3f:
                    7e:a5:e4:24:b6:47:e0:a7:75:82:35:d1:fd:82:fd:
                    8a:29:21:8c:fa:10:65:07:f7:07:4f:8b:a6:c8:67:
                    b4:41:90:ce:68:a7:ab:b5:84:df:bd:72:f0:8d:1e:
                    48:55:a6:53:3f:30:0f:7f:64:57:1f:5f:06:cf:f1:
                    93:57:36:d6:cc:90:f4:aa:e8:e7:55:37:d2:7b:36:
                    45:91:40:6e:38:cd:b8:3c:69:21:ed:dd:d2:43:c6:
                    85:95:35:33:41:47:62:cb:1d:00:07:f2:4e:51:b1:
                    0b:6e:88:2b:db:84:dd:78:2e:e0:dd:e7:a1:2a:c9:
                    a3:39:ac:98:2a:a2:76:a5:e2:96:57:2d:93:ea:f7:
                    1f:ad:26:84:c2:d2:4d:f5:f4:83:e6:ad:0c:24:0f:
                    52:4c:b8:9b:08:76:ca:2f:7a:08:1c:26:55:4b:27:
                    74:54:57:a2:2e:dc:16:b5:a6:93:e7:07:f1:02:2b:
                    8e:3e:eb:ff:fd:1c:86:a8:97:73:24:ca:45:b3:b7:
                    f8:b7:3b:ae:78:73:52:ea:dc:9c:c3:8b:d2:d7:27:
                    53:92:0f:3e:9d:31:c2:45:06:ab:f5:52:07:b7:de:
                    de:13:bf:d1:56:eb:d2:52:82:2d:a4:08:52:f8:61:
                    ec:d5:41:e6:ec:6f:d5:91:51:e1:dd:0f:53:80:07:
                    c5:19:8d:7e:21:6d:83:c3:9f:23:bd:9c:1d:90:7d:
                    c1:b3:82:64:ae:37:1d:5f:58:a0:31:54:82:e3:aa:
                    28:88:64:02:59:39:bf:26:76:e3:66:09:bc:fe:de:
                    46:a5:d0:d8:f4:f0:23:41:82:8d:bd:6b:95:3b:b8:
                    3d:99:d4:a2:80:fd:70:67:5d:68:8f:9d:5f:10:44:
                    b6:3e:41:d5:9f:7f:6a:89:40:5b
                Exponent: 65537 (0x10001)
        X509v3 extensions:
            X509v3 Key Usage: critical
                Digital Signature, Key Encipherment
            X509v3 Extended Key Usage: 
                TLS Web Server Authentication, TLS Web Client Authentication
    Signature Algorithm: sha512WithRSAEncryption
         5e:f5:8c:a4:2e:8e:9e:49:d8:a0:33:8f:a5:92:64:8d:b1:0f:
         e2:5f:f6:6b:76:92:23:b1:1d:49:80:24:b5:90:cc:e6:d6:6f:
         fd:a5:9d:c6:59:81:f1:90:d5:cf:73:97:10:23:2c:02:8f:51:
         fd:35:f1:09:4e:2c:b3:d6:29:19:80:45:6b:b4:e6:d6:9f:91:
         f3:db:47:6d:1b:a8:00:11:82:68:52:f3:66:e9:2e:49:16:56:
         62:92:17:f9:15:db:82:8a:ae:14:97:7c:2d:84:d8:4c:d9:f1:
         64:c6:fb:c4:5b:26:35:40:e6:58:3d:e3:e2:ef:f7:28:e1:2a:
         cd:8e:44:9b:75:83:b5:ac:65:f7:e9:90:e5:2f:98:41:01:db:
         88:8e:7a:c4:36:b9:4f:50:6f:5e:be:db:31:e9:ee:a7:c1:02:
         81:f1:fd:fc:fe:34:9a:e1:0a:0d:a5:c7:82:1e:66:40:54:fe:
         69:be:79:bf:53:b6:a2:d6:1a:e5:60:ac:c5:88:26:80:29:da:
         23:67:17:b0:ae:a1:92:67:f0:67:71:23:37:69:59:03:e3:74:
         7f:c3:17:89:6c:05:fb:32:67:3f:c3:17:e2:5b:86:98:d4:06:
         8b:f2:30:82:15:3c:80:a8:ae:43:ec:c3:09:6c:1b:09:d3:68:
         97:25:ef:67:40:b7:34:44:6d:75:5d:90:32:f4:58:01:e2:48:
         2e:41:73:08:d5:e7:ff:43:e4:33:22:25:7a:c3:4a:a1:ac:0d:
         d7:6f:29:29:bc:43:0a:16:c9:61:42:45:92:58:e2:93:dc:08:
         b0:a1:70:dd:8e:d4:10:39:db:fa:51:4e:9f:05:63:80:1e:0b:
         ad:b1:3e:a7:fd:6b:9a:07:cd:cf:ae:52:0c:04:d3:4b:9b:04:
         ca:1e:e2:89:da:68:6c:cf:88:10:50:e6:66:bb:9b:1a:57:4a:
         6a:b3:55:8a:3b:78:c6:29:db:d8:8d:84:3b:a3:50:9c:f4:ae:
         e0:06:23:47:28:ea
-----BEGIN CERTIFICATE-----
MIID7TCCAlWgAwIBAgIBATANBgkqhkiG9w0BAQ0FADAhMQ0wCwYDVQQKDAREQU9T
MRAwDgYDVQQDDAdEQU9TIENBMB4XDTIyMTAwMTExMjk0M1oXDTI1MDkzMDExMjk0
M1owIDENMAsGA1UECgwEREFPUzEPMA0GA1UEAwwGc2VydmVyMIIBojANBgkqhkiG
9w0BAQEFAAOCAY8AMIIBigKCAYEAvXmV4WlS/dPGq6WUigepkN7TxzmUPtxburbs
oiasTBDbriq4lHesd3MqHD9+peQktkfgp3WCNdH9gv2KKSGM+hBlB/cHT4umyGe0
QZDOaKertYTfvXLwjR5IVaZTPzAPf2RXH18Gz/GTVzbWzJD0qujnVTfSezZFkUBu
OM24PGkh7d3SQ8aFlTUzQUdiyx0AB/JOUbELbogr24TdeC7g3eehKsmjOayYKqJ2
peKWVy2T6vcfrSaEwtJN9fSD5q0MJA9STLibCHbKL3oIHCZVSyd0VFeiLtwWtaaT
5wfxAiuOPuv//RyGqJdzJMpFs7f4tzuueHNS6tycw4vS1ydTkg8+nTHCRQar9VIH
t97eE7/RVuvSUoItpAhS+GHs1UHm7G/VkVHh3Q9TgAfFGY1+IW2Dw58jvZwdkH3B
s4JkrjcdX1igMVSC46ooiGQCWTm/JnbjZgm8/t5GpdDY9PAjQYKNvWuVO7g9mdSi
gP1wZ11oj51fEES2PkHVn39qiUBbAgMBAAGjMTAvMA4GA1UdDwEB/wQEAwIFoDAd
BgNVHSUEFjAUBggrBgEFBQcDAQYIKwYBBQUHAwIwDQYJKoZIhvcNAQENBQADggGB
AF71jKQujp5J2KAzj6WSZI2xD+Jf9mt2kiOxHUmAJLWQzObWb/2lncZZgfGQ1c9z
lxAjLAKPUf018QlOLLPWKRmARWu05tafkfPbR20bqAARgmhS82bpLkkWVmKSF/kV
24KKrhSXfC2E2EzZ8WTG+8RbJjVA5lg94+Lv9yjhKs2ORJt1g7WsZffpkOUvmEEB
24iOesQ2uU9Qb16+2zHp7qfBAoHx/fz+NJrhCg2lx4IeZkBU/mm+eb9TtqLWGuVg
rMWIJoAp2iNnF7CuoZJn8GdxIzdpWQPjdH/DF4lsBfsyZz/DF+JbhpjUBovyMIIV
PICorkPswwlsGwnTaJcl72dAtzREbXVdkDL0WAHiSC5BcwjV5/9D5DMiJXrDSqGs
DddvKSm8QwoWyWFCRZJY4pPcCLChcN2O1BA52/pRTp8FY4AeC62xPqf9a5oHzc+u
UgwE00ubBMoe4onaaGzPiBBQ5ma7mxpXSmqzVYo7eMYp29iNhDujUJz0ruAGI0co
6g==
-----END CERTIFICATE-----
