Certificate:
    Data:
        Version: 3 (0x2)
        Serial Number: 2 (0x2)
    Signature Algorithm: sha512WithRSAEncryption
        Issuer: O=DAOS, CN=DAOS CA
        Validity
            Not Before: Oct  1 11:29:43 2022 GMT
            Not After : Sep 30 11:29:43 2025 GMT
        Subject: O=DAOS, CN=agent
        Subject Public Key Info:
            Public Key Algorithm: rsaEncryption
                Public-Key: (3072 bit)
                Modulus:
                    00:a0:5d:44:42:b3:1b:d5:64:4f:ba:5b:45:77:74:
                    b6:ea:6c:90:b9:2b:dd:80:6d:2b:ac:ca:db:c9:f7:
                    9c:47:ef:b1:7c:97:5e:ac:7f:b9:66:63:d4:81:de:
                    6f:39:0e:52:43:dc:69:7c:60:fb:7c:63:0d:55:24:
                    b2:ae:64:c9:5f:64:7f:e4:c2:c2:9b:3b:85:30:a2:
                    56:10:99:3e:61:13:c2:e9:56:7a:b1:df:78:d8:bd:
                    ea:19:cc:bb:25:be:9a:33:bc:96:30:67:45:71:86:
                    62:4d:13:f4:3d:c5:5a:65:6a:69:e7:2f:52:25:56:
                    07:45:f5:d5:49:db:78:26:a3:6d:d2:32:38:53:fd:
                    35:59:df:54:5d:21:e1:8a:bd:1d:fa:c0:0c:98:39:
                    84:e2:72:d7:92:72:28:b1:af:8f:07:f9:2c:ea:1e:
                    ec:63:ad:76:81:fd:06:eb:44:cc:63:c6:4b:75:b8:
                    56:c3:32:ff:02:ff:6c:02:a7:bd:d5:87:9e:37:98:
                    a7:da:01:d9:d4:82:0d:11:9d:aa:9b:62:f1:c6:38:
                    04:60:70:02:bb:ca:74:04:02:f3:47:be:03:87:5b:
                    ca:4a:a2:57:29:eb:5b:8a:b9:d0:14:e2:cf:9c:71:
                    a8:97:9d:6e:a6:fe:62:6d:06:1c:bd:88:43:bb:91:
                    fd:55:15:44:76:7f:8a:bb:a3:17:57:42:fa:7d:1a:
                    18:14:e2:df:ee:26:13:46:6f:f0:90:e8:8f:5f:08:
                    1a:df:5b:33:72:f8:a4:9a:fe:f3:0b:c3:5f:71:31:
                    71:23:f5:2c:75:5c:e9:1e:8a:af:8c:fb:50:21:e3:
                    1f:4c:3c:af:79:fc:93:08:b3:05:5b:96:f7:a0:f6:
                    d1:9b:e2:86:4d:83:9f:2f:21:11:cd:aa:66:a8:7e:
                    44:fa:2f:43:db:85:de:b3:37:f9:0d:60:6e:f4:57:
                    15:69:4a:21:96:ee:18:94:c6:1d:a3:c5:39:a0:be:
                    96:d3:48:1c:6c:b2:a4:37:00:67
                Exponent: 65537 (0x10001)
        X509v3 extensions:
            X509v3 Key Usage: critical
                Digital Signature, Key Encipherment
            X509v3 Extended Key Usage: 
                TLS Web Client Authentication
    Signature Algorithm: sha512WithRSAEncryption
         8d:0e:2d:80:c0:42:7e:94:20:2a:e6:1b:35:90:ae:bc:09:ce:
         f9:d2:27:04:99:76:bf:69:b7:12:81:b5:58:d9:ad:05:db:ef:
         29:d3:77:e3:e7:66:c4:19:e6:03:a0:9c:55:4f:26:72:d6:b5:
         39:59:a9:63:73:75:a2:82:b9:2e:68:c5:cc:58:58:08:3a:49:
         d8:ab:07:86:d3:8d:9e:c1:46:51:80:84:4c:f2:71:df:f8:f1:
         33:5d:c2:37:44:92:5e:3c:cd:82:e2:8e:03:f2:88:3c:03:2a:
         75:69:fc:3d:90:94:8c:1f:41:2b:6d:d9:5e:43:e8:88:6b:4f:
         d8:6e:fc:21:6d:aa:f8:a9:9f:0f:da:7d:4f:85:09:fc:3b:dc:
         9b:77:ac:8e:89:d2:a2:63:46:39:43:3b:5b:22:f7:cb:82:49:
         a5:42:23:17:fd:b4:f7:b4:31:04:e0:5c:4f:2a:ca:97:1d:02:
         25:a7:e1:1d:87:37:1a:48:93:e8:ef:31:d5:19:20:68:d8:34:
         d9:d9:df:63:c8:a2:44:7f:16:4c:2b:2d:b3:2d:70:f9:71:86:
         8a:d3:f6:ec:85:65:61:23:b7:e0:e2:35:0d:0f:b2:c1:61:74:
         27:b5:e7:4b:60:e4:4b:9c:66:df:0e:e6:46:2c:c7:94:1c:e3:
         e7:b0:4d:19:16:3d:32:d0:ec:9b:1d:09:fa:d0:09:62:ac:c0:
         14:db:9e:58:ab:1f:74:6c:1b:09:5b:d0:be:4b:de:5d:65:44:
         f0:9b:ab:27:fa:57:67:b9:8b:59:63:50:fc:bf:70:a4:10:4f:
         ea:7f:95:fd:e8:65:e4:50:46:7e:a1:a0:be:e7:cb:40:cd:d3:
         07:79:93:cb:5e:97:0d:76:38:29:2a:42:0d:a5:da:91:d0:e0:
         a7:07:3f:79:85:ed:95:30:55:3f:26:fc:61:c3:ea:33:c0:24:
         d0:c0:c1:0b:eb:b6:3f:e7:4b:fd:66:9a:57:87:dc:2d:81:e0:
         37:bc:db:4f:7b:05
-----BEGIN CERTIFICATE-----
MIID4jCCAkqgAwIBAgIBAjANBgkqhkiG9w0BAQ0FADAhMQ0wCwYDVQQKDAREQU9T
MRAwDgYDVQQDDAdEQU9TIENBMB4XDTIyMTAwMTExMjk0M1oXDTI1MDkzMDExMjk0
M1owHzENMAsGA1UECgwEREFPUzEOMAwGA1UEAwwFYWdlbnQwggGiMA0GCSqGSIb3
DQEBAQUAA4IBjwAwggGKAoIBgQCgXURCsxvVZE+6W0V3dLbqbJC5K92AbSusytvJ
95xH77F8l16sf7lmY9SB3m85DlJD3Gl8YPt8Yw1VJLKuZMlfZH/kwsKbO4UwolYQ
mT5hE8LpVnqx33jYveoZzLslvpozvJYwZ0VxhmJNE/Q9xVplamnnL1IlVgdF9dVJ
23gmo23SMjhT/TVZ31RdIeGKvR36wAyYOYTicteSciixr48H+SzqHuxjrXaB/Qbr
RMxjxkt1uFbDMv8C/2wCp73Vh543mKfaAdnUgg0RnaqbYvHGOARgcAK7ynQEAvNH
vgOHW8pKolcp61uKudAU4s+ccaiXnW6m/mJtBhy9iEO7kf1VFUR2f4q7oxdXQvp9
GhgU4t/uJhNGb/CQ6I9fCBrfWzNy+KSa/vMLw19xMXEj9Sx1XOkeiq+M+1Ah4x9M
PK95/JMIswVblveg9tGb4oZNg58vIRHNqmaofkT6L0Pbhd6zN/kNYG70VxVpSiGW
7hiUxh2jxTmgvpbTSBxssqQ3AGcCAwEAAaMnMCUwDgYDVR0PAQH/BAQDAgWgMBMG
A1UdJQQMMAoGCCsGAQUFBwMCMA0GCSqGSIb3DQEBDQUAA4IBgQCNDi2AwEJ+lCAq
5hs1kK68Cc750icEmXa/abcSgbVY2a0F2+8p03fj52bEGeYDoJxVTyZy1rU5Walj
c3WigrkuaMXMWFgIOknYqweG042ewUZRgIRM8nHf+PEzXcI3RJJePM2C4o4D8og8
Ayp1afw9kJSMH0ErbdleQ+iIa0/Ybvwhbar4qZ8P2n1PhQn8O9ybd6yOidKiY0Y5
QztbIvfLgkmlQiMX/bT3tDEE4FxPKsqXHQIlp+EdhzcaSJPo7zHVGSBo2DTZ2d9j
yKJEfxZMKy2zLXD5cYaK0/bshWVhI7fg4jUND7LBYXQntedLYORLnGbfDuZGLMeU
HOPnsE0ZFj0y0OybHQn60AlirMAU255Yqx90bBsJW9C+S95dZUTwm6sn+ldnuYtZ
Y1D8v3CkEE/qf5X96GXkUEZ+oaC+58tAzdMHeZPLXpcNdjgpKkINpdqR0OCnBz95
he2VMFU/Jvxhw+ozwCTQwMEL67Y/50v9ZppXh9wtgeA3vNtPewU=
-----END CERTIFICATE-----
