Certificate:
    Data:
        Version: 3 (0x2)
        Serial Number: 3 (0x3)
    Signature Algorithm: sha512WithRSAEncryption
        Issuer: O=DAOS, CN=DAOS CA
        Validity
            Not Before: Oct  1 11:29:43 2022 GMT
            Not After : Sep 30 11:29:43 2025 GMT
        Subject: O=DAOS, CN=admin
        Subject Public Key Info:
            Public Key Algorithm: rsaEncryption
                Public-Key: (3072 bit)
                Modulus:
                    00:ba:f4:bb:90:0b:1a:89:54:e4:b2:bf:c5:2e:c1:
                    14:6a:4f:a7:f6:a8:1c:72:6b:1b:d5:f3:cd:4f:e2:
                    e6:7d:a7:a6:7e:3f:ca:c9:12:0a:35:89:ac:44:b8:
                    cd:cd:85:fb:3a:96:be:1b:57:2b:3e:7a:67:3e:79:
                    10:8f:e0:3f:75:28:58:9f:93:68:4c:3f:9f:d6:ee:
                    a2:e3:57:be:5e:93:d1:21:5d:3a:cf:95:31:94:72:
                    1c:ae:db:e6:31:18:d5:fd:17:00:ca:82:dd:6f:9a:
                    fe:f4:fd:ce:6e:e4:9f:09:f7:2d:69:cf:ce:59:1c:
                    71:e4:7a:a6:ac:6f:0f:80:d4:ba:99:ac:70:dc:39:
                    2a:3e:24:f0:95:1e:4b:d9:69:04:f5:76:3f:a9:d5:
                    5d:d6:c8:58:0f:ff:f1:16:37:4c:eb:88:d8:be:3e:
                    13:7f:e4:0d:0e:5b:09:15:f9:1d:f1:19:a2:43:91:
                    c2:db:50:23:ed:6c:b8:45:80:49:6f:90:ba:22:0d:
                    de:47:9b:97:75:2a:b1:a3:de:18:65:07:68:79:d3:
                    45:d3:d1:e4:00:46:04:ed:02:73:02:2d:9c:91:f0:
                    71:e0:51:d8:f2:30:ef:f9:5d:2f:9c:e5:23:e7:c9:
                    99:de:a2:d6:38:8b:67:81:4e:9e:8f:f1:00:b0:ab:
                    a0:9f:6d:c2:f2:4d:38:a8:87:0e:3d:7c:69:f1:e2:
                    11:81:1c:cb:f1:32:e6:87:05:19:69:38:fe:4d:e7:
                    38:d4:b3:16:8a:a3:cf:e8:91:5c:9d:52:e5:a0:e6:
                    7c:f0:e2:85:d2:d7:e1:d2:02:27:d9:a7:33:7c:7d:
                    f5:9d:dc:81:cb:13:0c:ec:c3:1a:e7:78:46:03:ad:
                    01:7b:16:07:15:31:51:0f:f7:be:96:d3:e8:5e:d0:
                    e7:ec:01:34:ed:e4:57:9d:ea:0e:d1:84:ae:5a:60:
                    d6:db:e1:5a:db:dd:fd:21:a8:7a:c1:ff:2a:ce:98:
                    69:8a:7c:d5:f7:1a:9a:fa:10:a7
                Exponent: 65537 (0x10001)
        X509v3 extensions:
            X509v3 Key Usage: critical
                Digital Signature, Key Encipherment
            X509v3 Extended Key Usage: 
                TLS Web Client Authentication
    Signature Algorithm: sha512WithRSAEncryption
         26:63:31:2c:0c:88:1d:2f:32:da:08:f5:f5:be:51:76:d4:49:
         3e:3e:fe:7d:56:4e:4f:9d:d3:8a:23:82:14:b3:74:21:e4:07:
         86:21:b6:59:4d:12:f9:14:93:1c:59:e5:32:61:d5:61:7c:2b:
         62:20:98:5d:02:18:48:0e:0d:55:f6:91:1c:a0:6d:de:8b:84:
         1a:6e:7a:0e:3f:c3:53:48:e8:6b:d1:fb:e0:4d:03:6e:35:87:
         07:bd:8a:b9:bb:27:68:7f:7c:9a:ab:f9:db:46:89:8f:3a:db:
         0e:d7:e0:d2:a3:5c:e6:18:40:fb:79:eb:32:27:5a:42:cc:ec:
         75:1d:41:cb:15:0e:0b:35:ad:e7:f7:c5:ab:05:8a:99:24:92:
         53:f4:ac:74:7d:fa:92:22:10:e0:53:df:f3:00:34:e3:7a:c8:
         67:87:ec:57:c7:b1:b9:2c:cc:fc:d7:07:96:43:cb:ad:b2:ff:
         ad:12:1f:6c:9d:ad:f5:aa:14:67:d2:33:ed:3f:dc:3a:70:6b:
         37:86:8b:64:65:85:db:9d:42:0d:1f:fa:be:e3:03:09:0c:df:
         d1:1a:54:5a:f3:09:cc:b3:d0:6d:6f:b4:7d:19:ff:2d:7f:a6:
         ee:dc:18:45:b4:b2:3a:70:fe:42:bb:b9:76:93:9b:c6:68:c9:
         91:f8:c5:29:93:95:15:4c:b5:99:08:ac:f2:81:6d:9f:d6:5a:
         42:ae:7f:a9:60:ee:0a:4b:eb:81:0b:8e:55:c4:1d:63:a6:4d:
         b0:c6:09:39:66:5a:5a:4c:4f:d5:03:66:ce:3b:aa:a6:18:a3:
         d4:b4:b7:76:4a:ad:ea:fa:72:69:8d:13:ea:56:6c:0c:0a:ed:
         d0:20:d9:56:d6:95:84:30:16:f9:f2:ad:e3:33:ee:7f:57:7b:
         92:50:ab:e8:a7:61:37:c6:54:62:e9:63:43:44:5b:8d:54:31:
         7a:5f:f2:0e:05:04:03:60:41:c0:75:d2:48:a1:a4:e9:f4:23:
         67:ae:97:eb:15:ce
-----BEGIN CERTIFICATE-----
MIID4jCCAkqgAwIBAgIBAzANBgkqhkiG9w0BAQ0FADAhMQ0wCwYDVQQKDAREQU9T
MRAwDgYDVQQDDAdEQU9TIENBMB4XDTIyMTAwMTExMjk0M1oXDTI1MDkzMDExMjk0
M1owHzENMAsGA1UECgwEREFPUzEOMAwGA1UEAwwFYWRtaW4wggGiMA0GCSqGSIb3
DQEBAQUAA4IBjwAwggGKAoIBgQC69LuQCxqJVOSyv8UuwRRqT6f2qBxyaxvV881P
4uZ9p6Z+P8rJEgo1iaxEuM3Nhfs6lr4bVys+emc+eRCP4D91KFifk2hMP5/W7qLj
V75ek9EhXTrPlTGUchyu2+YxGNX9FwDKgt1vmv70/c5u5J8J9y1pz85ZHHHkeqas
bw+A1LqZrHDcOSo+JPCVHkvZaQT1dj+p1V3WyFgP//EWN0zriNi+PhN/5A0OWwkV
+R3xGaJDkcLbUCPtbLhFgElvkLoiDd5Hm5d1KrGj3hhlB2h500XT0eQARgTtAnMC
LZyR8HHgUdjyMO/5XS+c5SPnyZneotY4i2eBTp6P8QCwq6CfbcLyTTiohw49fGnx
4hGBHMvxMuaHBRlpOP5N5zjUsxaKo8/okVydUuWg5nzw4oXS1+HSAifZpzN8ffWd
3IHLEwzswxrneEYDrQF7FgcVMVEP976W0+he0OfsATTt5Fed6g7RhK5aYNbb4Vrb
3f0hqHrB/yrOmGmKfNX3Gpr6EKcCAwEAAaMnMCUwDgYDVR0PAQH/BAQDAgWgMBMG
A1UdJQQMMAoGCCsGAQUFBwMCMA0GCSqGSIb3DQEBDQUAA4IBgQAmYzEsDIgdLzLa
CPX1vlF21Ek+Pv59Vk5PndOKI4IUs3Qh5AeGIbZZTRL5FJMcWeUyYdVhfCtiIJhd
AhhIDg1V9pEcoG3ei4QabnoOP8NTSOhr0fvgTQNuNYcHvYq5uydof3yaq/nbRomP
OtsO1+DSo1zmGED7eesyJ1pCzOx1HUHLFQ4LNa3n98WrBYqZJJJT9Kx0ffqSIhDg
U9/zADTjeshnh+xXx7G5LMz81weWQ8utsv+tEh9sna31qhRn0jPtP9w6cGs3hotk
ZYXbnUINH/q+4wMJDN/RGlRa8wnMs9Btb7R9Gf8tf6bu3BhFtLI6cP5Cu7l2k5vG
aMmR+MUpk5UVTLWZCKzygW2f1lpCrn+pYO4KS+uBC45VxB1jpk2wxgk5ZlpaTE/V
A2bOO6qmGKPUtLd2Sq3q+nJpjRPqVmwMCu3QINlW1pWEMBb58q3jM+5/V3uSUKvo
p2E3xlRi6WNDRFuNVDF6X/IOBQQDYEHAddJIoaTp9CNnrpfrFc4=
-----END CERTIFICATE-----
